target datalayout = "e-m:e-p270:32:32-p271:32:32-p272:64:64-i64:64-i128:128-f80:128-n8:16:32:64-S128"
target triple = "x86_64-pc-linux-gnu"

%struct.Qureg = type { i32, i32, i32, i64, i64, i32, i32, %struct.ComplexArray, %struct.ComplexArray, %struct.ComplexArray, ptr, ptr, ptr, ptr, ptr, ptr }
%struct.ComplexArray = type { ptr, ptr }

; Function Attrs: nounwind uwtable
define void @QuESTAssert(i32 noundef %0, i32 noundef %1, ptr noundef %2) #0 {
  %4 = alloca i32, align 4
  %5 = alloca i32, align 4
  %6 = alloca ptr, align 8
  store i32 %0, ptr %4, align 4, !tbaa !9
  store i32 %1, ptr %5, align 4, !tbaa !9
  store ptr %2, ptr %6, align 8, !tbaa !4
  %7 = load i32, ptr %4, align 4, !tbaa !9
  %8 = icmp ne i32 %7, 0
  br i1 %8, label %15, label %9

9:                                                ; preds = %3
  %10 = load i32, ptr %5, align 4, !tbaa !9
  %11 = zext i32 %10 to i64
  %12 = getelementptr inbounds nuw [92 x ptr], ptr @errorMessages, i64 0, i64 %11
  %13 = load ptr, ptr %12, align 8, !tbaa !4
  %14 = load ptr, ptr %6, align 8, !tbaa !4
  call void @invalidQuESTInputError(ptr noundef %13, ptr noundef %14)
  br label %15

15:                                               ; preds = %9, %3
  ret void
}

; Function Attrs: nounwind uwtable
define void @validateMatchingQuregDims(ptr noundef byval(%struct.Qureg) align 8 %0, ptr noundef byval(%struct.Qureg) align 8 %1, ptr noundef %2) #0 {
  %4 = alloca ptr, align 8
  store ptr %2, ptr %4, align 8, !tbaa !4
  %5 = getelementptr inbounds nuw %struct.Qureg, ptr %0, i32 0, i32 1
  %6 = load i32, ptr %5, align 4, !tbaa !40
  %7 = getelementptr inbounds nuw %struct.Qureg, ptr %1, i32 0, i32 1
  %8 = load i32, ptr %7, align 4, !tbaa !40
  %9 = icmp eq i32 %6, %8
  %10 = zext i1 %9 to i32
  %11 = load ptr, ptr %4, align 8, !tbaa !4
  call void @QuESTAssert(i32 noundef %10, i32 noundef 31, ptr noundef %11)
  ret void
}