; Function Attrs: nounwind uwtable
define void @validateMatchingQuregDims(ptr noundef readonly byval(%struct.Qureg) align 8 captures(none) %0, ptr noundef readonly byval(%struct.Qureg) align 8 captures(none) %1, ptr noundef %2) local_unnamed_addr #3 {
  %4 = getelementptr inbounds nuw i8, ptr %0, i64 4
  %5 = load i32, ptr %4, align 4, !tbaa !26
  %6 = getelementptr inbounds nuw i8, ptr %1, i64 4
  %7 = load i32, ptr %6, align 4, !tbaa !26
  %.not = icmp eq i32 %5, %7
  br i1 %.not, label %QuESTAssert.exit, label %8

8:                                                ; preds = %3
  tail call void @invalidQuESTInputError(ptr noundef nonnull @.str.33, ptr noundef %2)
  br label %QuESTAssert.exit

QuESTAssert.exit:                                 ; preds = %3, %8
  ret void
}